target datalayout = "e-m:e-p270:32:32-p271:32:32-p272:64:64-i64:64-i128:128-f80:128-n8:16:32:64-S128"
target triple = "x86_64-pc-linux-gnu"

%struct.hm_header_st = type { i8, i64, i16, i64, i64, i32, %struct.dtls1_retransmit_state }
%struct.dtls1_retransmit_state = type { ptr, ptr }
%struct.ssl_connection_st = type { %struct.ssl_st, ptr, i32, ptr, ptr, ptr, i32, ptr, i32, i32, i32, i32, %struct.OSSL_TIME, %struct.OSSL_TIME, %struct.ossl_statem_st, i32, ptr, ptr, i64, i64, i64, %struct.ossl_quic_tls_callbacks_st, ptr, ptr, %struct.anon, ptr, ptr, ptr, i32, ptr, %struct.ssl_dane_st, ptr, ptr, ptr, ptr, i32, [64 x i8], [64 x i8], [64 x i8], [64 x i8], [64 x i8], [64 x i8], [64 x i8], [64 x i8], [64 x i8], [64 x i8], [64 x i8], [64 x i8], ptr, [64 x i8], i64, i32, i64, [32 x i8], ptr, ptr, ptr, i64, ptr, [32 x i8], i64, i32, ptr, ptr, i32, i32, ptr, ptr, ptr, ptr, ptr, i64, ptr, ptr, i64, i32, i32, i32, i64, i32, i32, i64, i64, i64, %struct.anon.1, ptr, i32, ptr, ptr, ptr, i32, ptr, ptr, ptr, i32, i32, i32, i32, ptr, i64, i32, ptr, %struct.srp_ctx_st, ptr, %struct.record_layer_st, ptr, ptr, ptr, ptr, i64, i32, i32, i32, i64, i64, i64, ptr, ptr, ptr, ptr, ptr, i64, ptr, i64, ptr, i64 }
%struct.ssl_st = type { i32, ptr, ptr, ptr, %struct.CRYPTO_REF_COUNT, ptr, %struct.crypto_ex_data_st }
%struct.CRYPTO_REF_COUNT = type { i32 }
%struct.crypto_ex_data_st = type { ptr, ptr }
%struct.OSSL_TIME = type { i64 }
%struct.ossl_statem_st = type { i32, i32, i32, i32, i32, i32, i32, i32, i32, i32, i32, i32, i32, ptr, ptr, ptr, i8 }
%struct.ossl_quic_tls_callbacks_st = type { ptr, ptr, ptr, ptr, ptr, ptr }
%struct.anon = type { i64, [32 x i8], [32 x i8], ptr, ptr, i32, i32, i32, i32, [2 x i8], i32, i32, i32, i32, %struct.anon.0, [64 x i8], i64, [64 x i8], i64, i32, i32, ptr, i64, ptr, i64, i32, i8, i8, i16, ptr, i16 }
%struct.anon.0 = type { [128 x i8], i64, [128 x i8], i64, i64, i32, ptr, ptr, [4 x ptr], [4 x i16], i64, i32, ptr, i64, ptr, i64, ptr, ptr, ptr, i32, i64, ptr, i32, ptr, i64, ptr, i64, ptr, i64, ptr, ptr, ptr, ptr, i64, i64, ptr, ptr, i32, i32, i32, i32 }
%struct.ssl_dane_st = type { ptr, ptr, ptr, ptr, ptr, i32, i32, i32, i64 }
%struct.anon.1 = type { [29 x i8], ptr, ptr, ptr, i32, ptr, i16, i32, %struct.anon.2, i32, i32, i64, ptr, i64, ptr, i64, ptr, i64, ptr, i64, ptr, i64, ptr, ptr, ptr, ptr, ptr, ptr, ptr, i64, ptr, i64, i32, i32, i32, i32, ptr, i64, i32, i8, i32, [4 x i32], i32, i8, i8, i8, i8 }
%struct.anon.2 = type { ptr, ptr, ptr, i64 }
%struct.srp_ctx_st = type { ptr, ptr, ptr, ptr, ptr, ptr, ptr, ptr, ptr, ptr, ptr, ptr, ptr, ptr, i32, i64 }
%struct.record_layer_st = type { ptr, ptr, ptr, ptr, ptr, ptr, ptr, ptr, i64, i32, i64, [4 x i8], i64, i64, i8, ptr, i32, ptr, ptr, ptr, i64, i64, i64, i64, [32 x %struct.tls_record_st] }
%struct.tls_record_st = type { ptr, i32, i8, ptr, ptr, i64, i64, i16, [8 x i8] }
%struct.dtls1_state_st = type { [255 x i8], i64, i32, i16, i16, i16, ptr, ptr, i64, i64, %struct.hm_header_st, %struct.hm_header_st, i32, %struct.OSSL_TIME, i32, i32, ptr }

; Function Attrs: nounwind uwtable
define i32 @dtls1_close_construct_packet(ptr noundef %0, ptr noundef %1, i32 noundef %2) #0 {
  %4 = alloca i32, align 4
  %5 = alloca ptr, align 8
  %6 = alloca ptr, align 8
  %7 = alloca i32, align 4
  %8 = alloca i64, align 8
  %9 = alloca i32, align 4
  store ptr %0, ptr %5, align 8, !tbaa !19
  store ptr %1, ptr %6, align 8, !tbaa !129
  store i32 %2, ptr %7, align 4, !tbaa !22
  call void @llvm.lifetime.start.p0(i64 8, ptr %8) #6
  %10 = load i32, ptr %7, align 4, !tbaa !22
  %11 = icmp ne i32 %10, 257
  br i1 %11, label %12, label %16

12:                                               ; preds = %3
  %13 = load ptr, ptr %6, align 8, !tbaa !129
  %14 = call i32 @WPACKET_close(ptr noundef %13)
  %15 = icmp ne i32 %14, 0
  br i1 %15, label %16, label %23

16:                                               ; preds = %12, %3
  %17 = load ptr, ptr %6, align 8, !tbaa !129
  %18 = call i32 @WPACKET_get_length(ptr noundef %17, ptr noundef %8)
  %19 = icmp ne i32 %18, 0
  br i1 %19, label %20, label %23

20:                                               ; preds = %16
  %21 = load i64, ptr %8, align 8, !tbaa !91
  %22 = icmp ugt i64 %21, 2147483647
  br i1 %22, label %23, label %24

23:                                               ; preds = %20, %16, %12
  store i32 0, ptr %4, align 4
  store i32 1, ptr %9, align 4
  br label %62

24:                                               ; preds = %20
  %25 = load i32, ptr %7, align 4, !tbaa !22
  %26 = icmp ne i32 %25, 257
  br i1 %26, label %27, label %42

27:                                               ; preds = %24
  %28 = load i64, ptr %8, align 8, !tbaa !91
  %29 = sub i64 %28, 12
  %30 = load ptr, ptr %5, align 8, !tbaa !19
  %31 = getelementptr inbounds nuw %struct.ssl_connection_st, ptr %30, i32 0, i32 25
  %32 = load ptr, ptr %31, align 8, !tbaa !80
  %33 = getelementptr inbounds nuw %struct.dtls1_state_st, ptr %32, i32 0, i32 10
  %34 = getelementptr inbounds nuw %struct.hm_header_st, ptr %33, i32 0, i32 1
  store i64 %29, ptr %34, align 8, !tbaa !86
  %35 = load i64, ptr %8, align 8, !tbaa !91
  %36 = sub i64 %35, 12
  %37 = load ptr, ptr %5, align 8, !tbaa !19
  %38 = getelementptr inbounds nuw %struct.ssl_connection_st, ptr %37, i32 0, i32 25
  %39 = load ptr, ptr %38, align 8, !tbaa !80
  %40 = getelementptr inbounds nuw %struct.dtls1_state_st, ptr %39, i32 0, i32 10
  %41 = getelementptr inbounds nuw %struct.hm_header_st, ptr %40, i32 0, i32 4
  store i64 %36, ptr %41, align 8, !tbaa !153
  br label %42

42:                                               ; preds = %27, %24
  %43 = load i64, ptr %8, align 8, !tbaa !91
  %44 = trunc i64 %43 to i32
  %45 = sext i32 %44 to i64
  %46 = load ptr, ptr %5, align 8, !tbaa !19
  %47 = getelementptr inbounds nuw %struct.ssl_connection_st, ptr %46, i32 0, i32 18
  store i64 %45, ptr %47, align 8, !tbaa !85
  %48 = load ptr, ptr %5, align 8, !tbaa !19
  %49 = getelementptr inbounds nuw %struct.ssl_connection_st, ptr %48, i32 0, i32 19
  store i64 0, ptr %49, align 8, !tbaa !84
  %50 = load i32, ptr %7, align 4, !tbaa !22
  %51 = icmp ne i32 %50, 3
  br i1 %51, label %52, label %61

52:                                               ; preds = %42
  %53 = load ptr, ptr %5, align 8, !tbaa !19
  %54 = load i32, ptr %7, align 4, !tbaa !22
  %55 = icmp eq i32 %54, 257
  %56 = select i1 %55, i32 1, i32 0
  %57 = call i32 @dtls1_buffer_message(ptr noundef %53, i32 noundef %56)
  %58 = icmp ne i32 %57, 0
  br i1 %58, label %60, label %59

59:                                               ; preds = %52
  store i32 0, ptr %4, align 4
  store i32 1, ptr %9, align 4
  br label %62

60:                                               ; preds = %52
  br label %61

61:                                               ; preds = %60, %42
  store i32 1, ptr %4, align 4
  store i32 1, ptr %9, align 4
  br label %62

62:                                               ; preds = %61, %59, %23
  call void @llvm.lifetime.end.p0(i64 8, ptr %8) #6
  %63 = load i32, ptr %4, align 4
  ret i32 %63
}