; Function Attrs: nounwind uwtable
define range(i32 0, 2) i32 @dtls1_close_construct_packet(ptr noundef captures(none) %0, ptr noundef %1, i32 noundef %2) local_unnamed_addr #0 {
  %4 = alloca i64, align 8
  call void @llvm.lifetime.start.p0(i64 8, ptr nonnull %4) #9
  %.not = icmp eq i32 %2, 257
  br i1 %.not, label %7, label %5

5:                                                ; preds = %3
  %6 = tail call i32 @WPACKET_close(ptr noundef %1) #9
  %.not14 = icmp eq i32 %6, 0
  br i1 %.not14, label %27, label %7

7:                                                ; preds = %5, %3
  %8 = call i32 @WPACKET_get_length(ptr noundef %1, ptr noundef nonnull %4) #9
  %9 = icmp eq i32 %8, 0
  %10 = load i64, ptr %4, align 8
  %11 = icmp ugt i64 %10, 2147483647
  %or.cond = select i1 %9, i1 true, i1 %11
  br i1 %or.cond, label %27, label %12

12:                                               ; preds = %7
  br i1 %.not, label %.thread, label %15

.thread:                                          ; preds = %12
  %13 = getelementptr inbounds nuw i8, ptr %0, i64 264
  store i64 %10, ptr %13, align 8, !tbaa !79
  %14 = getelementptr inbounds nuw i8, ptr %0, i64 272
  store i64 0, ptr %14, align 8, !tbaa !78
  br label %23

15:                                               ; preds = %12
  %16 = add nsw i64 %10, -12
  %17 = getelementptr inbounds nuw i8, ptr %0, i64 1264
  %18 = load ptr, ptr %17, align 8, !tbaa !74
  %19 = getelementptr inbounds nuw i8, ptr %18, i64 320
  store i64 %16, ptr %19, align 8, !tbaa !80
  %20 = getelementptr inbounds nuw i8, ptr %18, i64 344
  store i64 %16, ptr %20, align 8, !tbaa !144
  %21 = getelementptr inbounds nuw i8, ptr %0, i64 264
  store i64 %10, ptr %21, align 8, !tbaa !79
  %22 = getelementptr inbounds nuw i8, ptr %0, i64 272
  store i64 0, ptr %22, align 8, !tbaa !78
  %.not15 = icmp eq i32 %2, 3
  br i1 %.not15, label %26, label %23

23:                                               ; preds = %.thread, %15
  %24 = zext i1 %.not to i32
  %25 = call i32 @dtls1_buffer_message(ptr noundef nonnull %0, i32 noundef %24)
  %.not16 = icmp eq i32 %25, 0
  br i1 %.not16, label %27, label %26

26:                                               ; preds = %23, %15
  br label %27

27:                                               ; preds = %23, %5, %7, %26
  %.0 = phi i32 [ 1, %26 ], [ 0, %7 ], [ 0, %5 ], [ 0, %23 ]
  call void @llvm.lifetime.end.p0(i64 8, ptr nonnull %4) #9
  ret i32 %.0
}